target datalayout = "e-m:e-p270:32:32-p271:32:32-p272:64:64-i64:64-i128:128-f80:128-n8:16:32:64-S128"
target triple = "x86_64-pc-linux-gnu"

%struct.mspack_system = type { ptr, ptr, ptr, ptr, ptr, ptr, ptr, ptr, ptr, ptr, ptr }
%struct.mszipd_stream = type { ptr, ptr, ptr, i32, ptr, i32, i32, i32, ptr, ptr, ptr, ptr, ptr, i8, i32, i32, i32, [288 x i8], [32 x i8], [1152 x i16], [128 x i16], [32768 x i8] }

; Function Attrs: nounwind uwtable
define void @mszipd_free(ptr noundef %0) #0 {
  %2 = alloca ptr, align 8
  %3 = alloca ptr, align 8
  store ptr %0, ptr %2, align 8, !tbaa !14
  call void @llvm.lifetime.start.p0(i64 8, ptr %3) #2
  %4 = load ptr, ptr %2, align 8, !tbaa !14
  %5 = icmp ne ptr %4, null
  br i1 %5, label %6, label %20

6:                                                ; preds = %1
  %7 = load ptr, ptr %2, align 8, !tbaa !14
  %8 = getelementptr inbounds nuw %struct.mszipd_stream, ptr %7, i32 0, i32 0
  %9 = load ptr, ptr %8, align 8, !tbaa !20
  store ptr %9, ptr %3, align 8, !tbaa !3
  %10 = load ptr, ptr %3, align 8, !tbaa !3
  %11 = getelementptr inbounds nuw %struct.mspack_system, ptr %10, i32 0, i32 8
  %12 = load ptr, ptr %11, align 8, !tbaa !19
  %13 = load ptr, ptr %2, align 8, !tbaa !14
  %14 = getelementptr inbounds nuw %struct.mszipd_stream, ptr %13, i32 0, i32 8
  %15 = load ptr, ptr %14, align 8, !tbaa !16
  call void %12(ptr noundef %15)
  %16 = load ptr, ptr %3, align 8, !tbaa !3
  %17 = getelementptr inbounds nuw %struct.mspack_system, ptr %16, i32 0, i32 8
  %18 = load ptr, ptr %17, align 8, !tbaa !19
  %19 = load ptr, ptr %2, align 8, !tbaa !14
  call void %18(ptr noundef %19)
  br label %20

20:                                               ; preds = %6, %1
  call void @llvm.lifetime.end.p0(i64 8, ptr %3) #2
  ret void
}