; Function Attrs: nounwind uwtable
define void @mszipd_free(ptr noundef %0) local_unnamed_addr #0 {
  %.not = icmp eq ptr %0, null
  br i1 %.not, label %9, label %2

2:                                                ; preds = %1
  %3 = load ptr, ptr %0, align 8, !tbaa !15
  %4 = getelementptr inbounds nuw i8, ptr %3, i64 64
  %5 = load ptr, ptr %4, align 8, !tbaa !14
  %6 = getelementptr inbounds nuw i8, ptr %0, i64 56
  %7 = load ptr, ptr %6, align 8, !tbaa !8
  tail call void %5(ptr noundef %7) #6
  %8 = load ptr, ptr %4, align 8, !tbaa !14
  tail call void %8(ptr noundef nonnull %0) #6
  br label %9

9:                                                ; preds = %2, %1
  ret void
}